; Function Attrs: mustprogress uwtable
define hidden noundef i32 @_ZNK8datatype4util30get_recognizer_constructor_idxEP9func_decl(ptr noundef nonnull align 8 captures(none) dereferenceable(24) %0, ptr noundef readonly captures(none) %1) local_unnamed_addr #4 align 2 {
  %3 = getelementptr inbounds nuw i8, ptr %1, i64 24
  %4 = load ptr, ptr %3, align 8, !tbaa !65
  %5 = getelementptr inbounds nuw i8, ptr %4, i64 8
  %6 = load ptr, ptr %5, align 8, !tbaa !56
  %7 = getelementptr inbounds nuw i8, ptr %6, i64 8
  %8 = load i8, ptr %7, align 8, !tbaa !35
  %.not.i.i.i.i = icmp eq i8 %8, 1
  br i1 %.not.i.i.i.i, label %_ZNK8datatype4util26get_recognizer_constructorEP9func_decl.exit, label %9

9:                                                ; preds = %2
  %10 = tail call ptr @__cxa_allocate_exception(i64 16) #28
  store ptr getelementptr inbounds nuw inrange(-16, 24) (i8, ptr @_ZTVSt18bad_variant_access, i64 16), ptr %10, align 8, !tbaa !68
  %11 = getelementptr inbounds nuw i8, ptr %10, i64 8
  store ptr @.str.58, ptr %11, align 8, !tbaa !70
  tail call void @__cxa_throw(ptr nonnull %10, ptr nonnull @_ZTISt18bad_variant_access, ptr nonnull @_ZNSt9exceptionD2Ev) #30
  unreachable

_ZNK8datatype4util26get_recognizer_constructorEP9func_decl.exit: ; preds = %2
  %12 = load ptr, ptr %6, align 8, !tbaa !73
  %13 = tail call noundef i32 @_ZNK8datatype4util19get_constructor_idxEP9func_decl(ptr noundef nonnull align 8 dereferenceable(24) %0, ptr noundef %12)
  ret i32 %13
}